target datalayout = "e-m:e-p270:32:32-p271:32:32-p272:64:64-i64:64-i128:128-f80:128-n8:16:32:64-S128"
target triple = "x86_64-pc-linux-gnu"

%struct.rendition_info = type { [16 x i8], [4096 x i8], [64 x i8], [64 x i8], [64 x i8], [64 x i8], [4 x i8], [4 x i8], [512 x i8] }

@.str.89 = private unnamed_addr constant [5 x i8] c"URI=\00", align 1
@.str.91 = private unnamed_addr constant [6 x i8] c"TYPE=\00", align 1
@.str.92 = private unnamed_addr constant [10 x i8] c"GROUP-ID=\00", align 1
@.str.93 = private unnamed_addr constant [10 x i8] c"LANGUAGE=\00", align 1
@.str.94 = private unnamed_addr constant [16 x i8] c"ASSOC-LANGUAGE=\00", align 1
@.str.95 = private unnamed_addr constant [6 x i8] c"NAME=\00", align 1
@.str.96 = private unnamed_addr constant [9 x i8] c"DEFAULT=\00", align 1
@.str.97 = private unnamed_addr constant [8 x i8] c"FORCED=\00", align 1
@.str.98 = private unnamed_addr constant [17 x i8] c"CHARACTERISTICS=\00", align 1

; Function Attrs: nounwind uwtable
define internal void @handle_rendition_args(ptr noundef %0, ptr noundef %1, i32 noundef %2, ptr noundef %3, ptr noundef %4) #0 {
  %6 = alloca ptr, align 8
  %7 = alloca ptr, align 8
  %8 = alloca i32, align 4
  %9 = alloca ptr, align 8
  %10 = alloca ptr, align 8
  store ptr %0, ptr %6, align 8, !tbaa !249
  store ptr %1, ptr %7, align 8, !tbaa !125
  store i32 %2, ptr %8, align 4, !tbaa !14
  store ptr %3, ptr %9, align 8, !tbaa !243
  store ptr %4, ptr %10, align 8, !tbaa !245
  %11 = load ptr, ptr %7, align 8, !tbaa !125
  %12 = load i32, ptr %8, align 4, !tbaa !14
  %13 = sext i32 %12 to i64
  %14 = call i32 @strncmp(ptr noundef %11, ptr noundef @.str.91, i64 noundef %13) #14
  %15 = icmp ne i32 %14, 0
  br i1 %15, label %22, label %16

16:                                               ; preds = %5
  %17 = load ptr, ptr %6, align 8, !tbaa !249
  %18 = getelementptr inbounds nuw %struct.rendition_info, ptr %17, i32 0, i32 0
  %19 = getelementptr inbounds [16 x i8], ptr %18, i64 0, i64 0
  %20 = load ptr, ptr %9, align 8, !tbaa !243
  store ptr %19, ptr %20, align 8, !tbaa !125
  %21 = load ptr, ptr %10, align 8, !tbaa !245
  store i32 16, ptr %21, align 4, !tbaa !14
  br label %126

22:                                               ; preds = %5
  %23 = load ptr, ptr %7, align 8, !tbaa !125
  %24 = load i32, ptr %8, align 4, !tbaa !14
  %25 = sext i32 %24 to i64
  %26 = call i32 @strncmp(ptr noundef %23, ptr noundef @.str.89, i64 noundef %25) #14
  %27 = icmp ne i32 %26, 0
  br i1 %27, label %34, label %28

28:                                               ; preds = %22
  %29 = load ptr, ptr %6, align 8, !tbaa !249
  %30 = getelementptr inbounds nuw %struct.rendition_info, ptr %29, i32 0, i32 1
  %31 = getelementptr inbounds [4096 x i8], ptr %30, i64 0, i64 0
  %32 = load ptr, ptr %9, align 8, !tbaa !243
  store ptr %31, ptr %32, align 8, !tbaa !125
  %33 = load ptr, ptr %10, align 8, !tbaa !245
  store i32 4096, ptr %33, align 4, !tbaa !14
  br label %125

34:                                               ; preds = %22
  %35 = load ptr, ptr %7, align 8, !tbaa !125
  %36 = load i32, ptr %8, align 4, !tbaa !14
  %37 = sext i32 %36 to i64
  %38 = call i32 @strncmp(ptr noundef %35, ptr noundef @.str.92, i64 noundef %37) #14
  %39 = icmp ne i32 %38, 0
  br i1 %39, label %46, label %40

40:                                               ; preds = %34
  %41 = load ptr, ptr %6, align 8, !tbaa !249
  %42 = getelementptr inbounds nuw %struct.rendition_info, ptr %41, i32 0, i32 2
  %43 = getelementptr inbounds [64 x i8], ptr %42, i64 0, i64 0
  %44 = load ptr, ptr %9, align 8, !tbaa !243
  store ptr %43, ptr %44, align 8, !tbaa !125
  %45 = load ptr, ptr %10, align 8, !tbaa !245
  store i32 64, ptr %45, align 4, !tbaa !14
  br label %124

46:                                               ; preds = %34
  %47 = load ptr, ptr %7, align 8, !tbaa !125
  %48 = load i32, ptr %8, align 4, !tbaa !14
  %49 = sext i32 %48 to i64
  %50 = call i32 @strncmp(ptr noundef %47, ptr noundef @.str.93, i64 noundef %49) #14
  %51 = icmp ne i32 %50, 0
  br i1 %51, label %58, label %52

52:                                               ; preds = %46
  %53 = load ptr, ptr %6, align 8, !tbaa !249
  %54 = getelementptr inbounds nuw %struct.rendition_info, ptr %53, i32 0, i32 3
  %55 = getelementptr inbounds [64 x i8], ptr %54, i64 0, i64 0
  %56 = load ptr, ptr %9, align 8, !tbaa !243
  store ptr %55, ptr %56, align 8, !tbaa !125
  %57 = load ptr, ptr %10, align 8, !tbaa !245
  store i32 64, ptr %57, align 4, !tbaa !14
  br label %123

58:                                               ; preds = %46
  %59 = load ptr, ptr %7, align 8, !tbaa !125
  %60 = load i32, ptr %8, align 4, !tbaa !14
  %61 = sext i32 %60 to i64
  %62 = call i32 @strncmp(ptr noundef %59, ptr noundef @.str.94, i64 noundef %61) #14
  %63 = icmp ne i32 %62, 0
  br i1 %63, label %70, label %64

64:                                               ; preds = %58
  %65 = load ptr, ptr %6, align 8, !tbaa !249
  %66 = getelementptr inbounds nuw %struct.rendition_info, ptr %65, i32 0, i32 4
  %67 = getelementptr inbounds [64 x i8], ptr %66, i64 0, i64 0
  %68 = load ptr, ptr %9, align 8, !tbaa !243
  store ptr %67, ptr %68, align 8, !tbaa !125
  %69 = load ptr, ptr %10, align 8, !tbaa !245
  store i32 64, ptr %69, align 4, !tbaa !14
  br label %122

70:                                               ; preds = %58
  %71 = load ptr, ptr %7, align 8, !tbaa !125
  %72 = load i32, ptr %8, align 4, !tbaa !14
  %73 = sext i32 %72 to i64
  %74 = call i32 @strncmp(ptr noundef %71, ptr noundef @.str.95, i64 noundef %73) #14
  %75 = icmp ne i32 %74, 0
  br i1 %75, label %82, label %76

76:                                               ; preds = %70
  %77 = load ptr, ptr %6, align 8, !tbaa !249
  %78 = getelementptr inbounds nuw %struct.rendition_info, ptr %77, i32 0, i32 5
  %79 = getelementptr inbounds [64 x i8], ptr %78, i64 0, i64 0
  %80 = load ptr, ptr %9, align 8, !tbaa !243
  store ptr %79, ptr %80, align 8, !tbaa !125
  %81 = load ptr, ptr %10, align 8, !tbaa !245
  store i32 64, ptr %81, align 4, !tbaa !14
  br label %121

82:                                               ; preds = %70
  %83 = load ptr, ptr %7, align 8, !tbaa !125
  %84 = load i32, ptr %8, align 4, !tbaa !14
  %85 = sext i32 %84 to i64
  %86 = call i32 @strncmp(ptr noundef %83, ptr noundef @.str.96, i64 noundef %85) #14
  %87 = icmp ne i32 %86, 0
  br i1 %87, label %94, label %88

88:                                               ; preds = %82
  %89 = load ptr, ptr %6, align 8, !tbaa !249
  %90 = getelementptr inbounds nuw %struct.rendition_info, ptr %89, i32 0, i32 6
  %91 = getelementptr inbounds [4 x i8], ptr %90, i64 0, i64 0
  %92 = load ptr, ptr %9, align 8, !tbaa !243
  store ptr %91, ptr %92, align 8, !tbaa !125
  %93 = load ptr, ptr %10, align 8, !tbaa !245
  store i32 4, ptr %93, align 4, !tbaa !14
  br label %120

94:                                               ; preds = %82
  %95 = load ptr, ptr %7, align 8, !tbaa !125
  %96 = load i32, ptr %8, align 4, !tbaa !14
  %97 = sext i32 %96 to i64
  %98 = call i32 @strncmp(ptr noundef %95, ptr noundef @.str.97, i64 noundef %97) #14
  %99 = icmp ne i32 %98, 0
  br i1 %99, label %106, label %100

100:                                              ; preds = %94
  %101 = load ptr, ptr %6, align 8, !tbaa !249
  %102 = getelementptr inbounds nuw %struct.rendition_info, ptr %101, i32 0, i32 7
  %103 = getelementptr inbounds [4 x i8], ptr %102, i64 0, i64 0
  %104 = load ptr, ptr %9, align 8, !tbaa !243
  store ptr %103, ptr %104, align 8, !tbaa !125
  %105 = load ptr, ptr %10, align 8, !tbaa !245
  store i32 4, ptr %105, align 4, !tbaa !14
  br label %119

106:                                              ; preds = %94
  %107 = load ptr, ptr %7, align 8, !tbaa !125
  %108 = load i32, ptr %8, align 4, !tbaa !14
  %109 = sext i32 %108 to i64
  %110 = call i32 @strncmp(ptr noundef %107, ptr noundef @.str.98, i64 noundef %109) #14
  %111 = icmp ne i32 %110, 0
  br i1 %111, label %118, label %112

112:                                              ; preds = %106
  %113 = load ptr, ptr %6, align 8, !tbaa !249
  %114 = getelementptr inbounds nuw %struct.rendition_info, ptr %113, i32 0, i32 8
  %115 = getelementptr inbounds [512 x i8], ptr %114, i64 0, i64 0
  %116 = load ptr, ptr %9, align 8, !tbaa !243
  store ptr %115, ptr %116, align 8, !tbaa !125
  %117 = load ptr, ptr %10, align 8, !tbaa !245
  store i32 512, ptr %117, align 4, !tbaa !14
  br label %118

118:                                              ; preds = %112, %106
  br label %119

119:                                              ; preds = %118, %100
  br label %120

120:                                              ; preds = %119, %88
  br label %121

121:                                              ; preds = %120, %76
  br label %122

122:                                              ; preds = %121, %64
  br label %123

123:                                              ; preds = %122, %52
  br label %124

124:                                              ; preds = %123, %40
  br label %125

125:                                              ; preds = %124, %28
  br label %126

126:                                              ; preds = %125, %16
  ret void
}