; Function Attrs: mustprogress nofree norecurse nounwind willreturn memory(argmem: readwrite) uwtable
define internal void @handle_rendition_args(ptr noundef %0, ptr noundef readonly captures(none) %1, i32 noundef %2, ptr noundef writeonly captures(none) %3, ptr noundef writeonly captures(none) %4) #6 {
  %6 = sext i32 %2 to i64
  %7 = tail call i32 @strncmp(ptr noundef %1, ptr noundef nonnull @.str.91, i64 noundef %6) #15
  %.not = icmp eq i32 %7, 0
  br i1 %.not, label %.sink.split, label %8

8:                                                ; preds = %5
  %9 = tail call i32 @strncmp(ptr noundef %1, ptr noundef nonnull @.str.89, i64 noundef %6) #15
  %.not44 = icmp eq i32 %9, 0
  br i1 %.not44, label %10, label %12

10:                                               ; preds = %8
  %11 = getelementptr inbounds nuw i8, ptr %0, i64 16
  br label %.sink.split

12:                                               ; preds = %8
  %13 = tail call i32 @strncmp(ptr noundef %1, ptr noundef nonnull @.str.92, i64 noundef %6) #15
  %.not45 = icmp eq i32 %13, 0
  br i1 %.not45, label %14, label %16

14:                                               ; preds = %12
  %15 = getelementptr inbounds nuw i8, ptr %0, i64 4112
  br label %.sink.split

16:                                               ; preds = %12
  %17 = tail call i32 @strncmp(ptr noundef %1, ptr noundef nonnull @.str.93, i64 noundef %6) #15
  %.not46 = icmp eq i32 %17, 0
  br i1 %.not46, label %18, label %20

18:                                               ; preds = %16
  %19 = getelementptr inbounds nuw i8, ptr %0, i64 4176
  br label %.sink.split

20:                                               ; preds = %16
  %21 = tail call i32 @strncmp(ptr noundef %1, ptr noundef nonnull @.str.94, i64 noundef %6) #15
  %.not47 = icmp eq i32 %21, 0
  br i1 %.not47, label %22, label %24

22:                                               ; preds = %20
  %23 = getelementptr inbounds nuw i8, ptr %0, i64 4240
  br label %.sink.split

24:                                               ; preds = %20
  %25 = tail call i32 @strncmp(ptr noundef %1, ptr noundef nonnull @.str.95, i64 noundef %6) #15
  %.not48 = icmp eq i32 %25, 0
  br i1 %.not48, label %26, label %28

26:                                               ; preds = %24
  %27 = getelementptr inbounds nuw i8, ptr %0, i64 4304
  br label %.sink.split

28:                                               ; preds = %24
  %29 = tail call i32 @strncmp(ptr noundef %1, ptr noundef nonnull @.str.96, i64 noundef %6) #15
  %.not49 = icmp eq i32 %29, 0
  br i1 %.not49, label %30, label %32

30:                                               ; preds = %28
  %31 = getelementptr inbounds nuw i8, ptr %0, i64 4368
  br label %.sink.split

32:                                               ; preds = %28
  %33 = tail call i32 @strncmp(ptr noundef %1, ptr noundef nonnull @.str.97, i64 noundef %6) #15
  %.not50 = icmp eq i32 %33, 0
  br i1 %.not50, label %34, label %36

34:                                               ; preds = %32
  %35 = getelementptr inbounds nuw i8, ptr %0, i64 4372
  br label %.sink.split

36:                                               ; preds = %32
  %37 = tail call i32 @strncmp(ptr noundef %1, ptr noundef nonnull @.str.98, i64 noundef %6) #15
  %.not51 = icmp eq i32 %37, 0
  br i1 %.not51, label %38, label %40

38:                                               ; preds = %36
  %39 = getelementptr inbounds nuw i8, ptr %0, i64 4376
  br label %.sink.split

.sink.split:                                      ; preds = %5, %14, %22, %30, %38, %34, %26, %18, %10
  %.sink52 = phi ptr [ %11, %10 ], [ %19, %18 ], [ %27, %26 ], [ %35, %34 ], [ %39, %38 ], [ %31, %30 ], [ %23, %22 ], [ %15, %14 ], [ %0, %5 ]
  %.sink = phi i32 [ 4096, %10 ], [ 64, %18 ], [ 64, %26 ], [ 4, %34 ], [ 512, %38 ], [ 4, %30 ], [ 64, %22 ], [ 64, %14 ], [ 16, %5 ]
  store ptr %.sink52, ptr %3, align 8, !tbaa !223
  store i32 %.sink, ptr %4, align 4, !tbaa !168
  br label %40

40:                                               ; preds = %.sink.split, %36
  ret void
}